target datalayout = "e-m:e-p270:32:32-p271:32:32-p272:64:64-i64:64-i128:128-f80:128-n8:16:32:64-S128"
target triple = "x86_64-pc-linux-gnu"

%struct.linenoiseState = type { i32, i32, ptr, i64, ptr, ptr, i64, i64, i64, i64, i64, i64, i32 }

; Function Attrs: nounwind uwtable
define dso_local void @linenoiseEditMoveHome(ptr noundef %0) #0 {
  %2 = alloca ptr, align 8
  store ptr %0, ptr %2, align 8, !tbaa !23
  %3 = load ptr, ptr %2, align 8, !tbaa !23
  %4 = getelementptr inbounds nuw %struct.linenoiseState, ptr %3, i32 0, i32 7
  %5 = load i64, ptr %4, align 8, !tbaa !34
  %6 = icmp ne i64 %5, 0
  br i1 %6, label %7, label %11

7:                                                ; preds = %1
  %8 = load ptr, ptr %2, align 8, !tbaa !23
  %9 = getelementptr inbounds nuw %struct.linenoiseState, ptr %8, i32 0, i32 7
  store i64 0, ptr %9, align 8, !tbaa !34
  %10 = load ptr, ptr %2, align 8, !tbaa !23
  call void @refreshLine(ptr noundef %10)
  br label %11

11:                                               ; preds = %7, %1
  ret void
}